Certificate:
    Data:
        Version: 3 (0x2)
        Serial Number: 4096 (0x1000)
    Signature Algorithm: sha256WithRSAEncryption
        Issuer: C=CN, ST=Hubei Province, L=WuHan, O=HUS, OU=CSE, CN=zsk/emailAddress=myserver@163.com
        Validity
            Not Before: May 21 09:23:18 2022 GMT
            Not After : May 21 09:23:18 2023 GMT
        Subject: C=CN, ST=Hubei Province, L=WuHan, O=HUS, OU=CSE, CN=zsk/emailAddress=myserver@163.com
        Subject Public Key Info:
            Public Key Algorithm: rsaEncryption
                Public-Key: (1024 bit)
                Modulus:
                    00:ae:d5:40:c1:ed:56:33:03:f3:8e:5f:32:b5:39:
                    07:51:9a:16:3e:13:78:a1:f2:21:c1:4b:a9:77:7e:
                    71:5d:3a:ff:4a:75:11:ee:1e:b3:0b:aa:8a:74:d5:
                    ee:65:e5:20:de:13:03:74:af:61:25:90:6d:ff:22:
                    7d:22:4b:38:d4:90:89:7a:dc:67:ef:3b:c0:95:58:
                    af:07:23:77:38:6d:c1:f2:ed:ad:ff:03:b3:7e:3c:
                    a1:a2:5c:17:32:44:84:94:1f:aa:d5:31:ac:96:b8:
                    1e:da:09:16:9d:ee:4c:aa:d2:59:07:8f:91:81:c9:
                    0f:f3:74:d1:e1:92:d6:72:47
                Exponent: 65537 (0x10001)
        X509v3 extensions:
            X509v3 Basic Constraints: 
                CA:FALSE
            Netscape Comment: 
                OpenSSL Generated Certificate
            X509v3 Subject Key Identifier: 
                CE:FC:89:15:BD:1B:E1:00:BC:58:58:27:49:9E:2E:C4:71:09:9C:ED
            X509v3 Authority Key Identifier: 
                keyid:9B:1A:CB:83:9C:2C:0D:75:10:1C:12:D9:3F:00:B1:7E:9C:F9:09:2C

    Signature Algorithm: sha256WithRSAEncryption
         49:7c:99:18:82:48:88:24:f9:4c:e3:8a:d5:ce:a2:d9:0a:cc:
         a3:90:d6:75:d8:45:15:94:e9:cd:72:1b:48:09:4e:c8:01:fb:
         ca:fa:86:99:45:b6:2c:80:7f:db:a7:38:ba:dd:e2:4e:69:c8:
         f8:2d:e6:ad:ba:67:b3:d4:2f:71:db:e1:f9:2a:06:f2:87:b2:
         3b:1d:90:f2:6b:e9:ec:f9:50:56:61:eb:f3:3b:a2:3b:3a:59:
         8c:f4:f9:a1:0d:c9:fe:2e:a7:73:a7:ab:e0:3e:99:8a:2e:e2:
         6f:98:ba:23:94:cd:61:01:ca:a4:4b:52:8c:6e:d5:5f:f3:dd:
         5a:73:31:2e:6a:00:82:49:f5:f3:c6:c3:49:45:17:f2:b3:32:
         be:f5:45:a3:63:18:dd:f6:0a:36:e4:4e:89:79:fd:cb:fe:50:
         33:83:9c:7e:14:b7:4b:fc:8b:16:40:d0:76:12:a4:88:70:dd:
         1a:ce:b8:b1:ce:9a:62:df:2b:3c:de:48:e3:1a:eb:e6:68:bc:
         c8:04:65:04:37:2f:10:17:19:a1:81:d8:cd:d8:4b:03:f3:7d:
         f2:3a:1c:e4:2e:2c:1d:75:b7:28:70:42:ee:bb:99:42:78:65:
         b9:73:59:11:83:a4:25:8d:57:b3:51:20:b2:a0:b6:fe:53:0e:
         94:c1:30:8f
-----BEGIN CERTIFICATE-----
MIIDdzCCAl+gAwIBAgICEAAwDQYJKoZIhvcNAQELBQAwgYExCzAJBgNVBAYTAkNO
MRcwFQYDVQQIDA5IdWJlaSBQcm92aW5jZTEOMAwGA1UEBwwFV3VIYW4xDDAKBgNV
BAoMA0hVUzEMMAoGA1UECwwDQ1NFMQwwCgYDVQQDDAN6c2sxHzAdBgkqhkiG9w0B
CQEWEG15c2VydmVyQDE2My5jb20wHhcNMjIwNTIxMDkyMzE4WhcNMjMwNTIxMDky
MzE4WjCBgTELMAkGA1UEBhMCQ04xFzAVBgNVBAgMDkh1YmVpIFByb3ZpbmNlMQ4w
DAYDVQQHDAVXdUhhbjEMMAoGA1UECgwDSFVTMQwwCgYDVQQLDANDU0UxDDAKBgNV
BAMMA3pzazEfMB0GCSqGSIb3DQEJARYQbXlzZXJ2ZXJAMTYzLmNvbTCBnzANBgkq
hkiG9w0BAQEFAAOBjQAwgYkCgYEArtVAwe1WMwPzjl8ytTkHUZoWPhN4ofIhwUup
d35xXTr/SnUR7h6zC6qKdNXuZeUg3hMDdK9hJZBt/yJ9Iks41JCJetxn7zvAlViv
ByN3OG3B8u2t/wOzfjyholwXMkSElB+q1TGslrge2gkWne5MqtJZB4+RgckP83TR
4ZLWckcCAwEAAaN7MHkwCQYDVR0TBAIwADAsBglghkgBhvhCAQ0EHxYdT3BlblNT
TCBHZW5lcmF0ZWQgQ2VydGlmaWNhdGUwHQYDVR0OBBYEFM78iRW9G+EAvFhYJ0me
LsRxCZztMB8GA1UdIwQYMBaAFJsay4OcLA11EBwS2T8AsX6c+QksMA0GCSqGSIb3
DQEBCwUAA4IBAQBJfJkYgkiIJPlM44rVzqLZCsyjkNZ12EUVlOnNchtICU7IAfvK
+oaZRbYsgH/bpzi63eJOacj4Leatumez1C9x2+H5Kgbyh7I7HZDya+ns+VBWYevz
O6I7OlmM9PmhDcn+Lqdzp6vgPpmKLuJvmLojlM1hAcqkS1KMbtVf891aczEuagCC
SfXzxsNJRRfyszK+9UWjYxjd9go25E6Jef3L/lAzg5x+FLdL/IsWQNB2EqSIcN0a
zrixzppi3ys83kjjGuvmaLzIBGUENy8QFxmhgdjN2EsD833yOhzkLiwddbcocELu
u5lCeGW5c1kRg6QljVezUSCyoLb+Uw6UwTCP
-----END CERTIFICATE-----
