Certificate:
    Data:
        Version: 3 (0x2)
        Serial Number: 4096 (0x1000)
    Signature Algorithm: sha256WithRSAEncryption
        Issuer: C=CN, ST=Hubei Province, L=WuHan, O=HUS, OU=CSE, CN=zsk/emailAddress=myserver@163.com
        Validity
            Not Before: May 18 20:09:47 2022 GMT
            Not After : May 18 20:09:47 2023 GMT
        Subject: C=CN, ST=Hubei Province, L=WuHan, O=HUS, OU=CSE, CN=zsk/emailAddress=myserver@163.com
        Subject Public Key Info:
            Public Key Algorithm: rsaEncryption
                Public-Key: (1024 bit)
                Modulus:
                    00:f8:03:3e:3b:06:b2:35:e7:6d:31:86:29:08:72:
                    c3:6b:51:16:c4:af:17:05:62:56:a3:49:53:c5:48:
                    c1:fc:ad:82:d1:3d:50:1d:db:b6:67:07:37:39:e2:
                    ad:2d:17:d0:49:fe:a9:1e:1d:87:20:f2:86:d8:4b:
                    7a:fa:43:62:8d:08:4b:3b:14:c2:6e:a2:38:6e:44:
                    ed:db:c5:a1:4d:10:db:a8:8c:87:55:f7:db:60:6f:
                    06:39:3b:ca:72:0d:34:d4:5e:40:98:ae:25:d0:32:
                    c2:54:ee:3e:47:13:54:04:97:9d:3f:07:02:73:89:
                    fc:a0:d2:e5:25:53:a3:78:eb
                Exponent: 65537 (0x10001)
        X509v3 extensions:
            X509v3 Basic Constraints: 
                CA:FALSE
            Netscape Comment: 
                OpenSSL Generated Certificate
            X509v3 Subject Key Identifier: 
                09:12:E9:A1:57:34:48:F0:0A:6C:40:AA:36:A8:1F:9B:5F:EA:D1:6E
            X509v3 Authority Key Identifier: 
                keyid:7A:D1:1B:E8:03:41:F2:EA:EE:CC:A0:4C:8D:B9:7C:43:5B:3A:0D:E7

    Signature Algorithm: sha256WithRSAEncryption
         40:5f:14:f2:0f:b2:64:80:86:fd:4f:96:12:9a:93:1f:0d:4f:
         f1:0d:bd:43:f4:07:44:20:31:63:bc:07:f9:7a:e2:c8:03:e5:
         0d:36:ef:d7:fe:6b:c1:fc:1c:05:07:fa:b2:41:76:36:98:10:
         4e:ce:15:23:a9:39:71:a5:8b:67:80:d6:30:e3:43:0d:0f:dd:
         28:f9:d8:fe:47:4b:55:7e:18:63:df:9b:74:0c:75:fa:84:00:
         b6:f0:e8:1e:8e:c6:e9:29:f3:72:60:5b:08:dc:b7:7d:a4:10:
         96:f9:87:34:d6:56:f1:18:b4:f1:e4:34:b1:10:60:ca:20:74:
         45:c3:ae:ea:d8:8d:07:27:74:e2:c9:18:4b:5d:04:5d:4e:93:
         2a:2a:50:2f:e8:df:dd:e5:d3:6f:67:f1:21:89:7d:b3:7d:58:
         20:b7:fa:61:41:80:4f:86:52:98:ac:e6:fc:75:1c:83:7a:1b:
         ac:e0:25:ae:22:a0:1a:4f:d2:03:2c:da:8a:7c:8a:5d:fd:cb:
         c8:cf:ce:72:8e:9a:25:9d:1d:b6:2b:37:1d:77:8a:fd:e5:e2:
         e7:05:31:76:b9:8d:24:ea:9d:17:ab:dd:fb:30:24:04:22:01:
         6e:42:49:92:62:00:97:cf:30:01:02:48:51:f6:87:8b:16:c3:
         3c:ed:c5:47
-----BEGIN CERTIFICATE-----
MIIDdzCCAl+gAwIBAgICEAAwDQYJKoZIhvcNAQELBQAwgYExCzAJBgNVBAYTAkNO
MRcwFQYDVQQIDA5IdWJlaSBQcm92aW5jZTEOMAwGA1UEBwwFV3VIYW4xDDAKBgNV
BAoMA0hVUzEMMAoGA1UECwwDQ1NFMQwwCgYDVQQDDAN6c2sxHzAdBgkqhkiG9w0B
CQEWEG15c2VydmVyQDE2My5jb20wHhcNMjIwNTE4MjAwOTQ3WhcNMjMwNTE4MjAw
OTQ3WjCBgTELMAkGA1UEBhMCQ04xFzAVBgNVBAgMDkh1YmVpIFByb3ZpbmNlMQ4w
DAYDVQQHDAVXdUhhbjEMMAoGA1UECgwDSFVTMQwwCgYDVQQLDANDU0UxDDAKBgNV
BAMMA3pzazEfMB0GCSqGSIb3DQEJARYQbXlzZXJ2ZXJAMTYzLmNvbTCBnzANBgkq
hkiG9w0BAQEFAAOBjQAwgYkCgYEA+AM+OwayNedtMYYpCHLDa1EWxK8XBWJWo0lT
xUjB/K2C0T1QHdu2Zwc3OeKtLRfQSf6pHh2HIPKG2Et6+kNijQhLOxTCbqI4bkTt
28WhTRDbqIyHVffbYG8GOTvKcg001F5AmK4l0DLCVO4+RxNUBJedPwcCc4n8oNLl
JVOjeOsCAwEAAaN7MHkwCQYDVR0TBAIwADAsBglghkgBhvhCAQ0EHxYdT3BlblNT
TCBHZW5lcmF0ZWQgQ2VydGlmaWNhdGUwHQYDVR0OBBYEFAkS6aFXNEjwCmxAqjao
H5tf6tFuMB8GA1UdIwQYMBaAFHrRG+gDQfLq7sygTI25fENbOg3nMA0GCSqGSIb3
DQEBCwUAA4IBAQBAXxTyD7JkgIb9T5YSmpMfDU/xDb1D9AdEIDFjvAf5euLIA+UN
Nu/X/mvB/BwFB/qyQXY2mBBOzhUjqTlxpYtngNYw40MND90o+dj+R0tVfhhj35t0
DHX6hAC28OgejsbpKfNyYFsI3Ld9pBCW+Yc01lbxGLTx5DSxEGDKIHRFw67q2I0H
J3TiyRhLXQRdTpMqKlAv6N/d5dNvZ/EhiX2zfVggt/phQYBPhlKYrOb8dRyDehus
4CWuIqAaT9IDLNqKfIpd/cvIz85yjpolnR22Kzcdd4r95eLnBTF2uY0k6p0Xq937
MCQEIgFuQkmSYgCXzzABAkhR9oeLFsM87cVH
-----END CERTIFICATE-----
