Certificate:
    Data:
        Version: 3 (0x2)
        Serial Number: 4097 (0x1001)
    Signature Algorithm: sha256WithRSAEncryption
        Issuer: C=CN, ST=Hubei Province, L=WuHan, O=HUS, OU=CSE, CN=zsk/emailAddress=myserver@163.com
        Validity
            Not Before: May 18 20:09:47 2022 GMT
            Not After : May 18 20:09:47 2023 GMT
        Subject: C=CN, ST=Hubei Province, L=WuHan, O=HUST, OU=CSE, CN=zsk/emailAddress=myclient@163.com
        Subject Public Key Info:
            Public Key Algorithm: rsaEncryption
                Public-Key: (1024 bit)
                Modulus:
                    00:ae:ea:b9:3d:e1:d9:65:a7:22:41:f2:eb:81:0f:
                    28:0b:e6:20:f6:05:c2:6e:74:00:7d:07:d1:ad:61:
                    8b:04:49:f6:30:0a:2d:03:b2:35:8b:10:9a:90:93:
                    0d:48:ce:d4:1c:05:f1:27:c2:5b:28:02:ac:b5:02:
                    12:96:2e:9e:71:c8:21:3c:3e:b0:e5:45:f2:b2:1d:
                    b4:42:fe:05:6f:ae:fe:d9:e6:3f:69:d4:a2:a6:50:
                    68:ec:4f:98:b9:58:63:b8:40:c3:34:58:81:23:62:
                    f8:ab:e1:05:ed:40:b4:34:ed:4c:6a:1d:ec:a2:63:
                    ea:a0:5e:ed:13:a0:bc:a0:95
                Exponent: 65537 (0x10001)
        X509v3 extensions:
            X509v3 Basic Constraints: 
                CA:FALSE
            Netscape Comment: 
                OpenSSL Generated Certificate
            X509v3 Subject Key Identifier: 
                A4:73:2D:70:4B:43:1C:E7:37:3C:FC:4D:C4:BF:CD:F4:1E:52:21:6F
            X509v3 Authority Key Identifier: 
                keyid:7A:D1:1B:E8:03:41:F2:EA:EE:CC:A0:4C:8D:B9:7C:43:5B:3A:0D:E7

    Signature Algorithm: sha256WithRSAEncryption
         a7:a5:dd:3f:39:05:99:7a:55:bd:8b:6a:fc:58:a6:35:23:c5:
         0a:c5:ee:44:76:e3:bf:03:c6:ed:e7:e5:68:41:4e:b1:28:92:
         72:99:3f:77:f5:4f:ef:4d:b3:1c:de:2e:68:72:5c:9c:5f:e3:
         f5:7b:e9:dd:9b:1d:dd:bb:7d:70:7c:91:c4:b2:ca:a1:6d:88:
         1f:a5:09:12:64:d2:50:8d:74:a9:80:50:c8:48:7f:3f:6b:9c:
         b8:38:e9:66:9f:5a:d0:1d:fb:10:8e:96:1f:da:f8:75:40:ea:
         2a:35:f4:b7:22:28:4e:28:04:0d:d8:22:8a:69:6b:02:5b:44:
         ee:66:72:ed:8b:16:1c:33:43:4a:85:56:16:3b:c9:21:b3:2c:
         f6:1a:b0:2f:19:5d:fb:14:7c:41:52:3d:9e:72:6f:1f:cd:db:
         f4:a0:a4:af:b4:3f:36:8c:0a:4e:e1:0d:5c:17:90:0f:76:e2:
         85:e7:84:93:8f:a2:8a:86:2f:ba:37:e3:32:b0:9f:cd:ec:9c:
         3c:50:0b:58:64:40:b3:86:7a:95:61:3d:21:3b:3e:4a:f0:5b:
         b9:ef:8c:ba:99:a0:64:21:ac:58:86:3d:4a:43:99:16:46:15:
         35:5b:92:9c:aa:67:bf:18:39:87:f8:8e:be:11:3a:12:b3:bc:
         b5:2b:f8:71
-----BEGIN CERTIFICATE-----
MIIDeDCCAmCgAwIBAgICEAEwDQYJKoZIhvcNAQELBQAwgYExCzAJBgNVBAYTAkNO
MRcwFQYDVQQIDA5IdWJlaSBQcm92aW5jZTEOMAwGA1UEBwwFV3VIYW4xDDAKBgNV
BAoMA0hVUzEMMAoGA1UECwwDQ1NFMQwwCgYDVQQDDAN6c2sxHzAdBgkqhkiG9w0B
CQEWEG15c2VydmVyQDE2My5jb20wHhcNMjIwNTE4MjAwOTQ3WhcNMjMwNTE4MjAw
OTQ3WjCBgjELMAkGA1UEBhMCQ04xFzAVBgNVBAgMDkh1YmVpIFByb3ZpbmNlMQ4w
DAYDVQQHDAVXdUhhbjENMAsGA1UECgwESFVTVDEMMAoGA1UECwwDQ1NFMQwwCgYD
VQQDDAN6c2sxHzAdBgkqhkiG9w0BCQEWEG15Y2xpZW50QDE2My5jb20wgZ8wDQYJ
KoZIhvcNAQEBBQADgY0AMIGJAoGBAK7quT3h2WWnIkHy64EPKAvmIPYFwm50AH0H
0a1hiwRJ9jAKLQOyNYsQmpCTDUjO1BwF8SfCWygCrLUCEpYunnHIITw+sOVF8rId
tEL+BW+u/tnmP2nUoqZQaOxPmLlYY7hAwzRYgSNi+KvhBe1AtDTtTGod7KJj6qBe
7ROgvKCVAgMBAAGjezB5MAkGA1UdEwQCMAAwLAYJYIZIAYb4QgENBB8WHU9wZW5T
U0wgR2VuZXJhdGVkIENlcnRpZmljYXRlMB0GA1UdDgQWBBSkcy1wS0Mc5zc8/E3E
v830HlIhbzAfBgNVHSMEGDAWgBR60RvoA0Hy6u7MoEyNuXxDWzoN5zANBgkqhkiG
9w0BAQsFAAOCAQEAp6XdPzkFmXpVvYtq/FimNSPFCsXuRHbjvwPG7eflaEFOsSiS
cpk/d/VP702zHN4uaHJcnF/j9Xvp3Zsd3bt9cHyRxLLKoW2IH6UJEmTSUI10qYBQ
yEh/P2ucuDjpZp9a0B37EI6WH9r4dUDqKjX0tyIoTigEDdgiimlrAltE7mZy7YsW
HDNDSoVWFjvJIbMs9hqwLxld+xR8QVI9nnJvH83b9KCkr7Q/NowKTuENXBeQD3bi
heeEk4+iioYvujfjMrCfzeycPFALWGRAs4Z6lWE9ITs+SvBbue+MupmgZCGsWIY9
SkOZFkYVNVuSnKpnvxg5h/iOvhE6ErO8tSv4cQ==
-----END CERTIFICATE-----
