Certificate:
    Data:
        Version: 3 (0x2)
        Serial Number: 4097 (0x1001)
    Signature Algorithm: sha256WithRSAEncryption
        Issuer: C=CN, ST=Hubei Province, L=WuHan, O=HUS, OU=CSE, CN=zsk/emailAddress=myserver@163.com
        Validity
            Not Before: May 21 09:23:18 2022 GMT
            Not After : May 22 09:23:18 2022 GMT
        Subject: C=CN, ST=Hubei Province, L=WuHan, O=HUST, OU=CSE, CN=zsk/emailAddress=myclient@163.com
        Subject Public Key Info:
            Public Key Algorithm: rsaEncryption
                Public-Key: (1024 bit)
                Modulus:
                    00:c6:5b:e7:e6:8a:77:c7:e3:05:83:d3:a8:b8:e1:
                    c3:77:02:f6:d3:98:eb:bb:cf:5d:53:c9:1d:86:b3:
                    24:d2:ed:a2:59:74:eb:db:ca:e6:17:39:f6:0b:20:
                    6a:06:88:30:92:ef:c6:bb:e4:67:94:d7:e4:7c:b5:
                    68:2d:1f:62:01:68:00:f4:3f:30:74:39:5c:14:71:
                    c4:d0:a7:c0:32:79:0b:3a:32:6b:3b:9f:93:0c:df:
                    3e:aa:1a:19:ff:bf:c8:e9:bd:cd:e3:a8:ab:0e:c6:
                    57:eb:73:b5:e6:3f:a1:f5:6a:af:70:fa:d0:6a:83:
                    16:b1:58:d6:24:97:24:26:5d
                Exponent: 65537 (0x10001)
        X509v3 extensions:
            X509v3 Basic Constraints: 
                CA:FALSE
            Netscape Comment: 
                OpenSSL Generated Certificate
            X509v3 Subject Key Identifier: 
                0C:15:1B:A1:A8:38:0A:D4:D4:64:63:46:49:18:A2:36:A2:CA:0B:03
            X509v3 Authority Key Identifier: 
                keyid:9B:1A:CB:83:9C:2C:0D:75:10:1C:12:D9:3F:00:B1:7E:9C:F9:09:2C

    Signature Algorithm: sha256WithRSAEncryption
         11:14:1c:85:a3:9d:55:91:08:ba:76:85:5d:cb:9e:0f:7e:f1:
         52:58:94:1b:c1:d8:ee:28:31:8b:f2:4b:fe:21:f0:03:72:09:
         38:6c:81:d3:30:2b:d8:03:2f:60:62:d0:5b:28:52:c6:3b:74:
         7b:25:e1:96:b3:88:c8:b3:bd:43:fa:b0:df:83:fd:79:03:c0:
         81:ee:fc:44:7b:67:67:7c:73:71:cf:31:68:4c:2e:b4:ab:e6:
         a8:01:27:d7:d4:f8:5e:4f:00:87:a0:65:0f:91:99:61:a4:99:
         45:96:cb:6b:94:c3:cc:be:8b:dc:8b:8e:8d:d8:2f:86:8b:4f:
         49:50:4b:21:87:ef:d1:7f:41:ba:cf:2b:d9:0e:3f:a1:79:b8:
         21:b9:e7:72:db:61:da:5d:e9:c6:ab:46:26:73:7e:72:22:4f:
         84:4f:c3:2a:12:e6:56:c1:5e:86:f0:b6:7d:47:75:f5:ff:43:
         dd:de:36:97:d4:56:a9:a2:d3:13:3c:54:ca:c5:35:cd:9a:9f:
         1b:4a:eb:47:f2:e3:5e:fe:19:70:69:79:49:82:57:44:bc:2e:
         d6:6a:99:8b:77:69:32:7a:9c:62:19:58:90:fc:88:97:f9:50:
         5e:60:eb:be:3c:59:2e:d4:70:a2:a5:08:92:ab:97:8c:28:ad:
         cb:72:fe:7a
-----BEGIN CERTIFICATE-----
MIIDeDCCAmCgAwIBAgICEAEwDQYJKoZIhvcNAQELBQAwgYExCzAJBgNVBAYTAkNO
MRcwFQYDVQQIDA5IdWJlaSBQcm92aW5jZTEOMAwGA1UEBwwFV3VIYW4xDDAKBgNV
BAoMA0hVUzEMMAoGA1UECwwDQ1NFMQwwCgYDVQQDDAN6c2sxHzAdBgkqhkiG9w0B
CQEWEG15c2VydmVyQDE2My5jb20wHhcNMjIwNTIxMDkyMzE4WhcNMjIwNTIyMDky
MzE4WjCBgjELMAkGA1UEBhMCQ04xFzAVBgNVBAgMDkh1YmVpIFByb3ZpbmNlMQ4w
DAYDVQQHDAVXdUhhbjENMAsGA1UECgwESFVTVDEMMAoGA1UECwwDQ1NFMQwwCgYD
VQQDDAN6c2sxHzAdBgkqhkiG9w0BCQEWEG15Y2xpZW50QDE2My5jb20wgZ8wDQYJ
KoZIhvcNAQEBBQADgY0AMIGJAoGBAMZb5+aKd8fjBYPTqLjhw3cC9tOY67vPXVPJ
HYazJNLtoll069vK5hc59gsgagaIMJLvxrvkZ5TX5Hy1aC0fYgFoAPQ/MHQ5XBRx
xNCnwDJ5CzoyazufkwzfPqoaGf+/yOm9zeOoqw7GV+tzteY/ofVqr3D60GqDFrFY
1iSXJCZdAgMBAAGjezB5MAkGA1UdEwQCMAAwLAYJYIZIAYb4QgENBB8WHU9wZW5T
U0wgR2VuZXJhdGVkIENlcnRpZmljYXRlMB0GA1UdDgQWBBQMFRuhqDgK1NRkY0ZJ
GKI2osoLAzAfBgNVHSMEGDAWgBSbGsuDnCwNdRAcEtk/ALF+nPkJLDANBgkqhkiG
9w0BAQsFAAOCAQEAERQchaOdVZEIunaFXcueD37xUliUG8HY7igxi/JL/iHwA3IJ
OGyB0zAr2AMvYGLQWyhSxjt0eyXhlrOIyLO9Q/qw34P9eQPAge78RHtnZ3xzcc8x
aEwutKvmqAEn19T4Xk8Ah6BlD5GZYaSZRZbLa5TDzL6L3IuOjdgvhotPSVBLIYfv
0X9Bus8r2Q4/oXm4Ibnnctth2l3pxqtGJnN+ciJPhE/DKhLmVsFehvC2fUd19f9D
3d42l9RWqaLTEzxUysU1zZqfG0rrR/LjXv4ZcGl5SYJXRLwu1mqZi3dpMnqcYhlY
kPyIl/lQXmDrvjxZLtRwoqUIkquXjCity3L+eg==
-----END CERTIFICATE-----
